; Function Attrs: mustprogress nounwind uwtable
define hidden void @_ZN23ArchivedClassLoaderData19clear_archived_oopsEv(ptr nocapture noundef nonnull readonly align 8 dereferenceable(16) %0) local_unnamed_addr #0 align 2 {
  %2 = getelementptr inbounds i8, ptr %0, i64 8
  %3 = load ptr, ptr %2, align 8
  %.not = icmp eq ptr %3, null
  br i1 %.not, label %.loopexit, label %.preheader

.preheader:                                       ; preds = %1
  %4 = load i32, ptr %3, align 8
  %5 = icmp sgt i32 %4, 0
  br i1 %5, label %.lr.ph, label %.loopexit

.lr.ph:                                           ; preds = %.preheader, %.lr.ph
  %indvars.iv = phi i64 [ %indvars.iv.next, %.lr.ph ], [ 0, %.preheader ]
  %6 = phi ptr [ %10, %.lr.ph ], [ %3, %.preheader ]
  %7 = getelementptr inbounds i8, ptr %6, i64 8
  %8 = getelementptr inbounds ptr, ptr %7, i64 %indvars.iv
  %9 = load ptr, ptr %8, align 8
  tail call void @_ZN11ModuleEntry19clear_archived_oopsEv(ptr noundef nonnull align 8 dereferenceable(80) %9) #4
  %indvars.iv.next = add nuw nsw i64 %indvars.iv, 1
  %10 = load ptr, ptr %2, align 8
  %11 = load i32, ptr %10, align 8
  %12 = sext i32 %11 to i64
  %13 = icmp slt i64 %indvars.iv.next, %12
  br i1 %13, label %.lr.ph, label %.loopexit, !llvm.loop !6

.loopexit:                                        ; preds = %.lr.ph, %.preheader, %1
  ret void
}